; ModuleID = '54/104.c'
source_filename = "54/104.c"
target datalayout = "e-m:e-p270:32:32-p271:32:32-p272:64:64-i64:64-f80:128-n8:16:32:64-S128"
target triple = "x86_64-pc-linux-gnu"

@.str = private unnamed_addr constant [5 x i8] c"%d%d\00", align 1
@.str.1 = private unnamed_addr constant [3 x i8] c"%d\00", align 1

; Function Attrs: noinline nounwind uwtable
define dso_local void @main() #0 {
  %1 = alloca i32, align 4
  %2 = alloca i32, align 4
  %3 = alloca i32, align 4
  %4 = alloca i32, align 4
  %5 = alloca i32, align 4
  %6 = alloca i32, align 4
  store i32 0, i32* %5, align 4
  %7 = call i32 (i8*, ...) @__isoc99_scanf(i8* getelementptr inbounds ([5 x i8], [5 x i8]* @.str, i64 0, i64 0), i32* %1, i32* %2)
  store i32 1, i32* %4, align 4
  br label %8

8:                                                ; preds = %60, %0
  %9 = load i32, i32* %5, align 4
  %10 = icmp eq i32 %9, 0
  br i1 %10, label %11, label %63

11:                                               ; preds = %8
  %12 = load i32, i32* %4, align 4
  %13 = load i32, i32* %1, align 4
  %14 = sub nsw i32 %13, 1
  %15 = srem i32 %12, %14
  %16 = icmp eq i32 %15, 0
  br i1 %16, label %17, label %52

17:                                               ; preds = %11
  %18 = load i32, i32* %4, align 4
  %19 = load i32, i32* %1, align 4
  %20 = sub nsw i32 %19, 1
  %21 = sdiv i32 %18, %20
  %22 = load i32, i32* %1, align 4
  %23 = mul nsw i32 %21, %22
  %24 = load i32, i32* %2, align 4
  %25 = add nsw i32 %23, %24
  store i32 %25, i32* %6, align 4
  store i32 1, i32* %3, align 4
  br label %26

26:                                               ; preds = %48, %17
  %27 = load i32, i32* %3, align 4
  %28 = load i32, i32* %1, align 4
  %29 = icmp slt i32 %27, %28
  br i1 %29, label %30, label %51

30:                                               ; preds = %26
  %31 = load i32, i32* %6, align 4
  %32 = load i32, i32* %1, align 4
  %33 = sub nsw i32 %32, 1
  %34 = srem i32 %31, %33
  %35 = icmp eq i32 %34, 0
  br i1 %35, label %36, label %45

36:                                               ; preds = %30
  %37 = load i32, i32* %6, align 4
  %38 = load i32, i32* %1, align 4
  %39 = sub nsw i32 %38, 1
  %40 = sdiv i32 %37, %39
  %41 = load i32, i32* %1, align 4
  %42 = mul nsw i32 %40, %41
  %43 = load i32, i32* %2, align 4
  %44 = add nsw i32 %42, %43
  store i32 %44, i32* %6, align 4
  br label %47

45:                                               ; preds = %30
  %46 = load i32, i32* %1, align 4
  store i32 %46, i32* %3, align 4
  br label %47

47:                                               ; preds = %45, %36
  br label %48

48:                                               ; preds = %47
  %49 = load i32, i32* %3, align 4
  %50 = add nsw i32 %49, 1
  store i32 %50, i32* %3, align 4
  br label %26

51:                                               ; preds = %26
  br label %52

52:                                               ; preds = %51, %11
  %53 = load i32, i32* %3, align 4
  %54 = load i32, i32* %1, align 4
  %55 = icmp eq i32 %53, %54
  br i1 %55, label %56, label %59

56:                                               ; preds = %52
  %57 = load i32, i32* %6, align 4
  %58 = call i32 (i8*, ...) @printf(i8* getelementptr inbounds ([3 x i8], [3 x i8]* @.str.1, i64 0, i64 0), i32 %57)
  store i32 1, i32* %5, align 4
  br label %59

59:                                               ; preds = %56, %52
  br label %60

60:                                               ; preds = %59
  %61 = load i32, i32* %4, align 4
  %62 = add nsw i32 %61, 1
  store i32 %62, i32* %4, align 4
  br label %8

63:                                               ; preds = %8
  ret void
}

declare dso_local i32 @__isoc99_scanf(i8*, ...) #1

declare dso_local i32 @printf(i8*, ...) #1


!llvm.module.flags = !{!0}
!llvm.ident = !{!1}

!0 = !{i32 1, !"wchar_size", i32 4}
!1 = !{!"clang version 10.0.0-4ubuntu1 "}
